target datalayout = "e-m:e-p270:32:32-p271:32:32-p272:64:64-i64:64-i128:128-f80:128-n8:16:32:64-S128"
target triple = "x86_64-pc-linux-gnu"

@awtLockInited = hidden global i8 0, align 1
@stderr = external global ptr, align 8
@.str.42 = private unnamed_addr constant [67 x i8] c"X connection to %s host broken (explicit kill or server shutdown)\0A\00", align 1

; Function Attrs: nounwind uwtable
define internal i32 @xioerror_handler(ptr noundef %0) #0 {
  %2 = alloca ptr, align 8
  store ptr %0, ptr %2, align 8
  %3 = load i8, ptr @awtLockInited, align 1
  %4 = icmp ne i8 %3, 0
  br i1 %4, label %5, label %14

5:                                                ; preds = %1
  %6 = call ptr @__errno_location() #11
  %7 = load i32, ptr %6, align 4
  %8 = icmp eq i32 %7, 32
  br i1 %8, label %9, label %13

9:                                                ; preds = %5
  %10 = load ptr, ptr @stderr, align 8
  %11 = call ptr @XDisplayName(ptr noundef null)
  %12 = call i32 (ptr, ptr, ...) @jio_fprintf(ptr noundef %10, ptr noundef @.str.42, ptr noundef %11)
  br label %13

13:                                               ; preds = %9, %5
  br label %14

14:                                               ; preds = %13, %1
  ret i32 0
}