; Function Attrs: nounwind uwtable
define internal noundef i32 @xioerror_handler(ptr nocapture readnone %0) #0 {
  %2 = load i8, ptr @awtLockInited, align 1
  %.not = icmp eq i8 %2, 0
  br i1 %.not, label %11, label %3

3:                                                ; preds = %1
  %4 = tail call ptr @__errno_location() #19
  %5 = load i32, ptr %4, align 4
  %6 = icmp eq i32 %5, 32
  br i1 %6, label %7, label %11

7:                                                ; preds = %3
  %8 = load ptr, ptr @stderr, align 8
  %9 = tail call ptr @XDisplayName(ptr noundef null) #17
  %10 = tail call i32 (ptr, ptr, ...) @jio_fprintf(ptr noundef %8, ptr noundef nonnull @.str.42, ptr noundef %9) #17
  br label %11

11:                                               ; preds = %3, %7, %1
  ret i32 0
}